target datalayout = "e-m:e-p270:32:32-p271:32:32-p272:64:64-i64:64-i128:128-f80:128-n8:16:32:64-S128"
target triple = "x86_64-pc-linux-gnu"

%struct._lv_tree_node_t = type { ptr, ptr, i32, i32, ptr }
%struct._lv_tree_class_t = type { ptr, i32, ptr, ptr }

; Function Attrs: nounwind uwtable
define internal void @_lv_tree_node_construct(ptr noundef %0, ptr noundef %1) #0 {
  %3 = alloca ptr, align 8
  %4 = alloca ptr, align 8
  %5 = alloca ptr, align 8
  store ptr %0, ptr %3, align 8, !tbaa !3
  store ptr %1, ptr %4, align 8, !tbaa !3
  %6 = load ptr, ptr %4, align 8, !tbaa !3
  %7 = getelementptr inbounds nuw %struct._lv_tree_node_t, ptr %6, i32 0, i32 4
  %8 = load ptr, ptr %7, align 8, !tbaa !7
  %9 = getelementptr inbounds nuw %struct._lv_tree_class_t, ptr %8, i32 0, i32 0
  %10 = load ptr, ptr %9, align 8, !tbaa !15
  %11 = icmp ne ptr %10, null
  br i1 %11, label %12, label %28

12:                                               ; preds = %2
  call void @llvm.lifetime.start.p0(i64 8, ptr %5) #4
  %13 = load ptr, ptr %4, align 8, !tbaa !3
  %14 = getelementptr inbounds nuw %struct._lv_tree_node_t, ptr %13, i32 0, i32 4
  %15 = load ptr, ptr %14, align 8, !tbaa !7
  store ptr %15, ptr %5, align 8, !tbaa !3
  %16 = load ptr, ptr %4, align 8, !tbaa !3
  %17 = getelementptr inbounds nuw %struct._lv_tree_node_t, ptr %16, i32 0, i32 4
  %18 = load ptr, ptr %17, align 8, !tbaa !7
  %19 = getelementptr inbounds nuw %struct._lv_tree_class_t, ptr %18, i32 0, i32 0
  %20 = load ptr, ptr %19, align 8, !tbaa !15
  %21 = load ptr, ptr %4, align 8, !tbaa !3
  %22 = getelementptr inbounds nuw %struct._lv_tree_node_t, ptr %21, i32 0, i32 4
  store ptr %20, ptr %22, align 8, !tbaa !7
  %23 = load ptr, ptr %3, align 8, !tbaa !3
  %24 = load ptr, ptr %4, align 8, !tbaa !3
  call void @_lv_tree_node_construct(ptr noundef %23, ptr noundef %24)
  %25 = load ptr, ptr %5, align 8, !tbaa !3
  %26 = load ptr, ptr %4, align 8, !tbaa !3
  %27 = getelementptr inbounds nuw %struct._lv_tree_node_t, ptr %26, i32 0, i32 4
  store ptr %25, ptr %27, align 8, !tbaa !7
  call void @llvm.lifetime.end.p0(i64 8, ptr %5) #4
  br label %28

28:                                               ; preds = %12, %2
  %29 = load ptr, ptr %4, align 8, !tbaa !3
  %30 = getelementptr inbounds nuw %struct._lv_tree_node_t, ptr %29, i32 0, i32 4
  %31 = load ptr, ptr %30, align 8, !tbaa !7
  %32 = getelementptr inbounds nuw %struct._lv_tree_class_t, ptr %31, i32 0, i32 2
  %33 = load ptr, ptr %32, align 8, !tbaa !17
  %34 = icmp ne ptr %33, null
  br i1 %34, label %35, label %43

35:                                               ; preds = %28
  %36 = load ptr, ptr %4, align 8, !tbaa !3
  %37 = getelementptr inbounds nuw %struct._lv_tree_node_t, ptr %36, i32 0, i32 4
  %38 = load ptr, ptr %37, align 8, !tbaa !7
  %39 = getelementptr inbounds nuw %struct._lv_tree_class_t, ptr %38, i32 0, i32 2
  %40 = load ptr, ptr %39, align 8, !tbaa !17
  %41 = load ptr, ptr %3, align 8, !tbaa !3
  %42 = load ptr, ptr %4, align 8, !tbaa !3
  call void %40(ptr noundef %41, ptr noundef %42)
  br label %43

43:                                               ; preds = %35, %28
  ret void
}