; Function Attrs: nounwind uwtable
define internal fastcc void @_lv_tree_node_construct(ptr noundef %0, ptr noundef nonnull %1) unnamed_addr #0 {
  %3 = getelementptr inbounds nuw i8, ptr %1, i64 24
  %4 = load ptr, ptr %3, align 8, !tbaa !11
  %5 = load ptr, ptr %4, align 8, !tbaa !9
  %.not = icmp eq ptr %5, null
  br i1 %.not, label %7, label %6

6:                                                ; preds = %2
  store ptr %5, ptr %3, align 8, !tbaa !11
  tail call fastcc void @_lv_tree_node_construct(ptr noundef %0, ptr noundef %1)
  store ptr %4, ptr %3, align 8, !tbaa !11
  br label %7

7:                                                ; preds = %6, %2
  %8 = getelementptr inbounds nuw i8, ptr %4, i64 16
  %9 = load ptr, ptr %8, align 8, !tbaa !18
  %.not13 = icmp eq ptr %9, null
  br i1 %.not13, label %11, label %10

10:                                               ; preds = %7
  tail call void %9(ptr noundef %0, ptr noundef nonnull %1) #3
  br label %11

11:                                               ; preds = %10, %7
  ret void
}